Certificate:
    Data:
        Version: 3 (0x2)
        Serial Number:
            12:f7:5f:f4:3f:b2:ed:d0:e9:b1:53:cd:6a:75:c3:c3
    Signature Algorithm: sha256WithRSAEncryption
        Issuer: CN=Easy-RSA CA
        Validity
            Not Before: Jun 15 09:46:56 2018 GMT
            Not After : Jun 12 09:46:56 2028 GMT
        Subject: CN=client
        Subject Public Key Info:
            Public Key Algorithm: rsaEncryption
                Public-Key: (2048 bit)
                Modulus:
                    00:c0:29:4f:98:0d:e5:51:d7:b1:e1:f2:e7:af:5f:
                    cd:d6:0f:b9:ca:99:a3:db:d6:19:3c:c7:40:8f:4e:
                    fa:f0:56:49:4d:71:28:2a:9f:7f:69:c1:96:85:78:
                    50:f4:18:0f:f2:7d:7c:53:c4:bb:00:98:c2:3e:b6:
                    31:8a:84:ed:93:27:52:a9:e5:f3:1a:28:2c:98:9a:
                    30:a7:f6:fa:e0:ce:eb:c2:11:fb:2f:d5:f0:a5:2e:
                    90:1a:38:b5:00:6b:7a:c7:bf:99:41:07:58:fa:34:
                    a3:b6:71:fe:51:d0:6c:d1:01:f6:d2:d0:29:30:a4:
                    8f:0a:27:a3:f3:4b:46:45:2f:ca:26:62:dc:f7:54:
                    a7:26:c8:e0:a4:28:14:27:68:6e:d6:38:60:b3:e0:
                    62:6e:9d:6e:4f:e2:91:6e:43:23:1c:aa:e2:53:73:
                    ce:7f:aa:6a:b2:92:dd:41:a3:c2:5e:68:92:46:05:
                    7d:87:43:d3:15:19:9e:11:65:cb:e4:85:48:e9:e1:
                    b1:8f:66:95:c7:6c:8e:87:ac:ea:ba:72:d9:d1:72:
                    be:4e:1f:f8:6a:a2:bb:b6:d0:ab:2f:64:6e:5a:5d:
                    4a:e5:ba:ac:c8:f6:23:ef:ca:82:25:12:a1:d0:39:
                    73:a4:f3:a7:dd:74:b2:19:16:dc:ea:35:a8:71:4d:
                    05:1f
                Exponent: 65537 (0x10001)
        X509v3 extensions:
            X509v3 Basic Constraints: 
                CA:FALSE
            X509v3 Subject Key Identifier: 
                70:1B:92:09:D6:C7:AF:D2:DF:59:2D:CA:68:B6:8B:F0:30:83:5B:3E
            X509v3 Authority Key Identifier: 
                keyid:76:76:83:5F:C3:01:6F:4E:A0:21:4E:44:1E:3C:6B:A5:F7:EC:FB:52
                DirName:/CN=Easy-RSA CA
                serial:92:DD:04:A6:EB:1D:80:60

            X509v3 Extended Key Usage: 
                TLS Web Client Authentication
            X509v3 Key Usage: 
                Digital Signature
    Signature Algorithm: sha256WithRSAEncryption
         62:d9:95:ac:eb:d5:1b:a4:47:e8:e4:07:ac:f0:ab:2b:be:7e:
         ea:a4:cc:59:09:fc:28:41:2f:3a:92:ea:1d:fe:d9:ae:c4:c4:
         a9:7f:91:fb:65:83:69:ab:60:73:71:4d:ea:f5:11:a3:ef:a5:
         5a:a6:7b:be:13:4b:c2:30:dd:3c:d5:a4:35:7b:f5:8f:d3:3c:
         54:fb:71:24:25:a8:88:da:cf:51:2c:6d:fc:95:04:0b:46:75:
         9a:63:8c:13:0c:59:56:fd:78:6d:da:10:cc:9b:df:1b:fd:94:
         08:4e:87:af:0f:c0:06:2a:56:e9:ed:b1:72:60:dd:d2:d3:2e:
         d3:fb:44:59:fc:69:af:83:d1:e8:9a:e8:be:de:3b:23:e1:c6:
         dc:c3:31:77:5d:9d:90:e7:6f:7b:03:48:62:3a:9d:2f:ae:ab:
         4c:c0:a5:e8:d2:f3:6e:1c:ef:12:75:5c:fc:f3:01:b3:51:a6:
         53:23:52:6c:24:34:8e:d9:92:d5:4e:4d:34:7f:72:7b:3a:54:
         c7:ee:dc:26:f8:f4:fc:99:7f:97:9a:d4:74:3e:31:5a:c2:80:
         14:11:5c:f0:ce:f1:87:d1:91:68:0f:0e:cc:10:7e:49:9a:6e:
         cf:b2:f1:e7:14:ea:6c:b2:df:5a:5a:da:8f:1a:61:e1:74:06:
         e4:a7:38:52
-----BEGIN CERTIFICATE-----
MIIDSTCCAjGgAwIBAgIQEvdf9D+y7dDpsVPNanXDwzANBgkqhkiG9w0BAQsFADAW
MRQwEgYDVQQDDAtFYXN5LVJTQSBDQTAeFw0xODA2MTUwOTQ2NTZaFw0yODA2MTIw
OTQ2NTZaMBExDzANBgNVBAMMBmNsaWVudDCCASIwDQYJKoZIhvcNAQEBBQADggEP
ADCCAQoCggEBAMApT5gN5VHXseHy569fzdYPucqZo9vWGTzHQI9O+vBWSU1xKCqf
f2nBloV4UPQYD/J9fFPEuwCYwj62MYqE7ZMnUqnl8xooLJiaMKf2+uDO68IR+y/V
8KUukBo4tQBrese/mUEHWPo0o7Zx/lHQbNEB9tLQKTCkjwono/NLRkUvyiZi3PdU
pybI4KQoFCdobtY4YLPgYm6dbk/ikW5DIxyq4lNzzn+qarKS3UGjwl5okkYFfYdD
0xUZnhFly+SFSOnhsY9mlcdsjoes6rpy2dFyvk4f+Gqiu7bQqy9kblpdSuW6rMj2
I+/KgiUSodA5c6Tzp910shkW3Oo1qHFNBR8CAwEAAaOBlzCBlDAJBgNVHRMEAjAA
MB0GA1UdDgQWBBRwG5IJ1sev0t9ZLcpotovwMINbPjBGBgNVHSMEPzA9gBR2doNf
wwFvTqAhTkQePGul9+z7UqEapBgwFjEUMBIGA1UEAwwLRWFzeS1SU0EgQ0GCCQCS
3QSm6x2AYDATBgNVHSUEDDAKBggrBgEFBQcDAjALBgNVHQ8EBAMCB4AwDQYJKoZI
hvcNAQELBQADggEBAGLZlazr1RukR+jkB6zwqyu+fuqkzFkJ/ChBLzqS6h3+2a7E
xKl/kftlg2mrYHNxTer1EaPvpVqme74TS8Iw3TzVpDV79Y/TPFT7cSQlqIjaz1Es
bfyVBAtGdZpjjBMMWVb9eG3aEMyb3xv9lAhOh68PwAYqVuntsXJg3dLTLtP7RFn8
aa+D0eia6L7eOyPhxtzDMXddnZDnb3sDSGI6nS+uq0zApejS824c7xJ1XPzzAbNR
plMjUmwkNI7ZktVOTTR/cns6VMfu3Cb49PyZf5ea1HQ+MVrCgBQRXPDO8YfRkWgP
DswQfkmabs+y8ecU6myy31pa2o8aYeF0BuSnOFI=
-----END CERTIFICATE-----
