Certificate:
    Data:
        Version: 3 (0x2)
        Serial Number:
            db:4b:f9:fc:08:fa:bf:fe:47:30:71:5b:77:68:82:17
    Signature Algorithm: sha256WithRSAEncryption
        Issuer: CN=Easy-RSA CA
        Validity
            Not Before: Jun 26 19:34:23 2018 GMT
            Not After : Jun 23 19:34:23 2028 GMT
        Subject: CN=client
        Subject Public Key Info:
            Public Key Algorithm: rsaEncryption
                Public-Key: (2048 bit)
                Modulus:
                    00:c9:36:cc:79:c2:ec:49:49:e9:b2:e6:85:0b:44:
                    5f:a1:71:a8:b2:12:31:44:4f:98:b1:18:3a:4b:72:
                    ea:07:c9:28:f4:62:3d:a2:23:ce:b7:db:6b:c4:b8:
                    fb:93:8a:84:17:92:b2:80:66:74:0f:d8:4a:fa:fb:
                    5b:f8:a4:d5:1d:29:b1:04:93:4f:33:2b:f2:ce:4a:
                    3c:18:cf:d5:3c:81:2e:1d:3c:07:cc:57:3d:6a:2d:
                    42:cc:1d:d2:02:78:07:2f:b8:6f:21:6a:6d:00:ba:
                    1b:b9:8c:b8:e3:bf:cb:cf:15:0b:4f:e1:c4:df:b7:
                    c4:3f:f7:e2:ea:5d:e6:81:b0:90:0c:bd:72:ce:a9:
                    61:7f:af:a8:d7:a9:b6:9b:f9:40:30:6d:7d:ff:75:
                    7d:5e:eb:1b:d9:4a:93:cf:f4:2e:7f:a1:de:c5:ff:
                    68:09:62:d4:9f:be:10:9a:10:1c:6c:b8:62:77:5b:
                    14:aa:74:d4:59:5e:78:9f:52:8b:a2:ca:50:ed:e0:
                    63:b0:d1:fb:2c:22:00:ba:ac:09:2f:f7:2f:4d:27:
                    6c:81:f9:de:77:12:f1:3e:e8:4c:60:9f:f1:70:ab:
                    46:aa:b1:d3:79:5b:b5:6b:e0:d8:b6:1d:44:6c:20:
                    53:cf:a4:43:90:ec:36:6a:e4:8e:5c:22:7f:b9:ee:
                    a7:ed
                Exponent: 65537 (0x10001)
        X509v3 extensions:
            X509v3 Basic Constraints: 
                CA:FALSE
            X509v3 Subject Key Identifier: 
                26:DC:86:5B:C2:10:1D:6A:A6:C2:DE:EE:B8:16:EA:07:05:6D:41:68
            X509v3 Authority Key Identifier: 
                keyid:D1:FC:08:36:D9:AF:21:2E:83:D7:35:F7:6A:EC:C0:47:4D:2F:4A:0D
                DirName:/CN=Easy-RSA CA
                serial:F1:D8:89:D9:6C:D5:84:32

            X509v3 Extended Key Usage: 
                TLS Web Client Authentication
            X509v3 Key Usage: 
                Digital Signature
    Signature Algorithm: sha256WithRSAEncryption
         2f:5e:7a:4c:95:b8:48:5c:f2:04:0e:f2:ae:29:0e:5a:9f:bb:
         5b:37:4b:7a:f7:ef:38:5b:02:e5:0b:71:f7:2e:87:14:10:69:
         02:95:b0:86:e1:2d:dd:5f:a9:c9:62:ba:35:98:b9:40:88:9b:
         5c:9d:69:4b:f4:0d:5c:12:1c:5b:1f:00:ba:97:a2:13:58:44:
         e2:e2:6d:dc:75:47:5d:b7:1a:d1:9e:77:05:83:ee:b0:e8:92:
         c0:8a:06:d1:ce:5b:a2:cb:b6:fe:bb:83:45:35:f8:a9:b2:b9:
         9b:c9:cc:ec:2d:32:9e:3f:bb:d2:1a:a5:68:68:12:7c:09:55:
         12:7f:20:27:71:f2:fe:f5:17:5e:d5:3c:36:36:2b:f9:ea:ac:
         f3:99:dc:f9:d6:03:bb:54:b6:15:b4:8c:fa:4b:6e:69:83:55:
         d3:5b:a9:d0:7f:94:fd:63:b4:71:e2:bc:74:ed:7a:c4:04:0f:
         25:55:f9:1a:54:e6:57:61:45:51:8e:94:e0:17:a3:0e:86:a6:
         de:0a:1b:c6:b1:a9:6b:84:1c:1b:70:d8:2a:95:c4:43:80:c3:
         e0:d5:59:d7:af:3e:71:cd:69:f9:d9:a4:85:62:12:fd:46:96:
         9b:20:0d:33:52:78:aa:30:4c:d1:23:62:05:31:58:61:17:64:
         29:4c:02:53
-----BEGIN CERTIFICATE-----
MIIDSjCCAjKgAwIBAgIRANtL+fwI+r/+RzBxW3doghcwDQYJKoZIhvcNAQELBQAw
FjEUMBIGA1UEAwwLRWFzeS1SU0EgQ0EwHhcNMTgwNjI2MTkzNDIzWhcNMjgwNjIz
MTkzNDIzWjARMQ8wDQYDVQQDDAZjbGllbnQwggEiMA0GCSqGSIb3DQEBAQUAA4IB
DwAwggEKAoIBAQDJNsx5wuxJSemy5oULRF+hcaiyEjFET5ixGDpLcuoHySj0Yj2i
I86322vEuPuTioQXkrKAZnQP2Er6+1v4pNUdKbEEk08zK/LOSjwYz9U8gS4dPAfM
Vz1qLULMHdICeAcvuG8ham0Auhu5jLjjv8vPFQtP4cTft8Q/9+LqXeaBsJAMvXLO
qWF/r6jXqbab+UAwbX3/dX1e6xvZSpPP9C5/od7F/2gJYtSfvhCaEBxsuGJ3WxSq
dNRZXnifUouiylDt4GOw0fssIgC6rAkv9y9NJ2yB+d53EvE+6Exgn/Fwq0aqsdN5
W7Vr4Ni2HURsIFPPpEOQ7DZq5I5cIn+57qftAgMBAAGjgZcwgZQwCQYDVR0TBAIw
ADAdBgNVHQ4EFgQUJtyGW8IQHWqmwt7uuBbqBwVtQWgwRgYDVR0jBD8wPYAU0fwI
NtmvIS6D1zX3auzAR00vSg2hGqQYMBYxFDASBgNVBAMMC0Vhc3ktUlNBIENBggkA
8diJ2WzVhDIwEwYDVR0lBAwwCgYIKwYBBQUHAwIwCwYDVR0PBAQDAgeAMA0GCSqG
SIb3DQEBCwUAA4IBAQAvXnpMlbhIXPIEDvKuKQ5an7tbN0t69+84WwLlC3H3LocU
EGkClbCG4S3dX6nJYro1mLlAiJtcnWlL9A1cEhxbHwC6l6ITWETi4m3cdUddtxrR
nncFg+6w6JLAigbRzluiy7b+u4NFNfipsrmbyczsLTKeP7vSGqVoaBJ8CVUSfyAn
cfL+9Rde1Tw2Niv56qzzmdz51gO7VLYVtIz6S25pg1XTW6nQf5T9Y7Rx4rx07XrE
BA8lVfkaVOZXYUVRjpTgF6MOhqbeChvGsalrhBwbcNgqlcRDgMPg1VnXrz5xzWn5
2aSFYhL9RpabIA0zUniqMEzRI2IFMVhhF2QpTAJT
-----END CERTIFICATE-----
